; Function Attrs: null_pointer_is_valid sspstrong uwtable
define internal fastcc range(i32 23, 29) i32 @dissect_rdm_pd_dns_ipv4_name_server(ptr noundef %0, ptr noundef %1, i8 noundef zeroext %2) unnamed_addr #1 {
  switch i8 %2, label %12 [
    i8 32, label %4
    i8 33, label %7
    i8 48, label %7
  ]

4:                                                ; preds = %3
  %5 = load i32, ptr @hf_rdm_pd_dns_ipv4_name_server_index, align 4
  %6 = tail call ptr @proto_tree_add_item(ptr noundef %1, i32 noundef %5, ptr noundef %0, i32 noundef 23, i32 noundef 1, i32 noundef 0)
  br label %12

7:                                                ; preds = %3, %3
  %8 = load i32, ptr @hf_rdm_pd_dns_ipv4_name_server_index, align 4
  %9 = tail call ptr @proto_tree_add_item(ptr noundef %1, i32 noundef %8, ptr noundef %0, i32 noundef 23, i32 noundef 1, i32 noundef 0)
  %10 = load i32, ptr @hf_rdm_pd_dns_ipv4_name_server_address, align 4
  %11 = tail call ptr @proto_tree_add_item(ptr noundef %1, i32 noundef %10, ptr noundef %0, i32 noundef 24, i32 noundef 4, i32 noundef 0)
  br label %12

12:                                               ; preds = %7, %4, %3
  %.0 = phi i32 [ 23, %3 ], [ 28, %7 ], [ 24, %4 ]
  ret i32 %.0
}